; Function Attrs: mustprogress uwtable
define hidden void @_ZNK5ceres8internal11ProblemImpl17GetResidualBlocksEPSt6vectorIPNS0_13ResidualBlockESaIS4_EE(ptr nocapture noundef nonnull readonly align 8 dereferenceable(280) %0, ptr noundef %1) local_unnamed_addr #0 align 2 personality ptr @__gxx_personality_v0 {
  %3 = alloca %"class.google::LogMessageFatal", align 8
  %.not = icmp eq ptr %1, null
  br i1 %.not, label %4, label %.critedge

4:                                                ; preds = %2
  call void @_ZN6google15LogMessageFatalC1EPKci(ptr noundef nonnull align 8 dereferenceable(96) %3, ptr noundef nonnull @.str, i32 noundef 839)
  %5 = invoke noundef nonnull align 8 dereferenceable(8) ptr @_ZN6google10LogMessage6streamEv(ptr noundef nonnull align 8 dereferenceable(96) %3)
          to label %6 unwind label %9

6:                                                ; preds = %4
  %7 = invoke noundef nonnull align 8 dereferenceable(8) ptr @_ZStlsISt11char_traitsIcEERSt13basic_ostreamIcT_ES5_PKc(ptr noundef nonnull align 8 dereferenceable(8) %5, ptr noundef nonnull @.str.52)
          to label %8 unwind label %9

8:                                                ; preds = %6
  call void @_ZN6google15LogMessageFatalD1Ev(ptr noundef nonnull align 8 dereferenceable(96) %3) #23
  unreachable

9:                                                ; preds = %6, %4
  %10 = landingpad { ptr, i32 }
          cleanup
  call void @_ZN6google15LogMessageFatalD1Ev(ptr noundef nonnull align 8 dereferenceable(96) %3) #23
  unreachable

.critedge:                                        ; preds = %2
  %11 = getelementptr inbounds i8, ptr %0, i64 152
  %12 = load ptr, ptr %11, align 8
  %13 = tail call noundef nonnull align 8 dereferenceable(24) ptr @_ZNK5ceres8internal7Program15residual_blocksEv(ptr noundef nonnull align 8 dereferenceable(56) %12)
  %14 = tail call noundef nonnull align 8 dereferenceable(24) ptr @_ZNSt6vectorIPN5ceres8internal13ResidualBlockESaIS3_EEaSERKS5_(ptr noundef nonnull align 8 dereferenceable(24) %1, ptr noundef nonnull align 8 dereferenceable(24) %13)
  ret void
}